; Function Attrs: mustprogress nofree nounwind uwtable
define noundef i32 @_Z8pr_titleP8_IO_FILEiPKc(ptr nocapture noundef %0, i32 noundef %1, ptr noundef %2) local_unnamed_addr #0 {
  %4 = icmp sgt i32 %1, 0
  br i1 %4, label %.lr.ph.i, label %_Z9pr_indentP8_IO_FILEi.exit

.lr.ph.i:                                         ; preds = %3, %.lr.ph.i
  %.05.i = phi i32 [ %5, %.lr.ph.i ], [ 0, %3 ]
  %fputc.i = tail call i32 @fputc(i32 32, ptr %0)
  %5 = add nuw nsw i32 %.05.i, 1
  %exitcond.not.i = icmp eq i32 %5, %1
  br i1 %exitcond.not.i, label %_Z9pr_indentP8_IO_FILEi.exit, label %.lr.ph.i, !llvm.loop !5

_Z9pr_indentP8_IO_FILEi.exit:                     ; preds = %.lr.ph.i, %3
  %6 = tail call i32 (ptr, ptr, ...) @fprintf(ptr noundef %0, ptr noundef nonnull @.str.2, ptr noundef %2) #6
  %7 = add nsw i32 %1, 3
  ret i32 %7
}